target datalayout = "e-m:e-p270:32:32-p271:32:32-p272:64:64-i64:64-i128:128-f80:128-n8:16:32:64-S128"
target triple = "x86_64-pc-linux-gnu"

%struct.quic_conn_id_st = type { i8, [20 x i8] }
%union.bio_addr_st = type { %struct.sockaddr_in6, [84 x i8] }
%struct.sockaddr_in6 = type { i16, i16, i32, %struct.in6_addr, i32 }
%struct.in6_addr = type { %union.anon }
%union.anon = type { [4 x i32] }
%struct.OSSL_TIME = type { i64 }
%struct.quic_channel_st = type { ptr, %struct.anon, %struct.anon.0, ptr, ptr, ptr, ptr, ptr, ptr, ptr, i64, %union.bio_addr_st, ptr, ptr, ptr, %struct.quic_txfc_st, %struct.quic_rxfc_st, [3 x %struct.quic_rxfc_st], %struct.quic_rxfc_st, %struct.quic_rxfc_st, %struct.quic_stream_map_st, %struct.ossl_statm_st, ptr, ptr, ptr, ptr, ptr, ptr, ptr, ptr, [3 x ptr], [3 x ptr], %struct.quic_conn_id_st, %struct.quic_conn_id_st, %struct.quic_conn_id_st, %struct.quic_conn_id_st, %struct.quic_conn_id_st, %struct.quic_conn_id_st, i64, i64, i64, i64, i64, i64, i64, i64, i64, i64, i8, i16, ptr, i64, i64, i64, i64, i64, i64, i64, i64, i64, i64, i64, i64, i64, %struct.quic_terminate_cause_st, %struct.OSSL_TIME, %struct.OSSL_TIME, %struct.OSSL_TIME, %struct.OSSL_TIME, %struct.OSSL_TIME, i64, i64, i64, ptr, ptr, i64, ptr }
%struct.anon = type { ptr, ptr }
%struct.anon.0 = type { ptr, ptr }
%struct.quic_txfc_st = type { ptr, i64, i64, i8 }
%struct.quic_rxfc_st = type { i64, i64, i64, i64, i64, i64, i64, %struct.OSSL_TIME, ptr, ptr, ptr, i8, i8, i8, i8 }
%struct.quic_stream_map_st = type { ptr, %struct.quic_stream_list_node_st, %struct.quic_stream_list_node_st, %struct.quic_stream_list_node_st, i64, i64, i64, i64, i64, ptr, ptr, ptr, ptr, ptr, i32 }
%struct.quic_stream_list_node_st = type { ptr, ptr }
%struct.ossl_statm_st = type { %struct.OSSL_TIME, %struct.OSSL_TIME, %struct.OSSL_TIME, %struct.OSSL_TIME, i8 }
%struct.quic_terminate_cause_st = type { i64, i64, ptr, i64, i8 }
%struct.ossl_quic_frame_conn_close_st = type { i8, i64, i64, ptr, i64 }

; Function Attrs: nounwind uwtable
define i32 @ossl_quic_channel_is_active(ptr noundef %0) #0 {
  %2 = alloca ptr, align 8
  store ptr %0, ptr %2, align 8, !tbaa !3
  %3 = load ptr, ptr %2, align 8, !tbaa !3
  %4 = icmp ne ptr %3, null
  br i1 %4, label %5, label %12

5:                                                ; preds = %1
  %6 = load ptr, ptr %2, align 8, !tbaa !3
  %7 = getelementptr inbounds nuw %struct.quic_channel_st, ptr %6, i32 0, i32 72
  %8 = load i64, ptr %7, align 8
  %9 = and i64 %8, 7
  %10 = trunc i64 %9 to i32
  %11 = icmp eq i32 %10, 1
  br label %12

12:                                               ; preds = %5, %1
  %13 = phi i1 [ false, %1 ], [ %11, %5 ]
  %14 = zext i1 %13 to i32
  ret i32 %14
}

; Function Attrs: nounwind uwtable
define void @ossl_quic_channel_on_remote_conn_close(ptr noundef %0, ptr noundef %1) #0 {
  %3 = alloca ptr, align 8
  %4 = alloca ptr, align 8
  %5 = alloca %struct.quic_terminate_cause_st, align 8
  %6 = alloca i32, align 4
  store ptr %0, ptr %3, align 8, !tbaa !3
  store ptr %1, ptr %4, align 8, !tbaa !240
  call void @llvm.lifetime.start.p0(i64 40, ptr %5) #9
  call void @llvm.memset.p0.i64(ptr align 8 %5, i8 0, i64 40, i1 false)
  %7 = load ptr, ptr %3, align 8, !tbaa !3
  %8 = call i32 @ossl_quic_channel_is_active(ptr noundef %7)
  %9 = icmp ne i32 %8, 0
  br i1 %9, label %11, label %10

10:                                               ; preds = %2
  store i32 1, ptr %6, align 4
  br label %43

11:                                               ; preds = %2
  %12 = getelementptr inbounds nuw %struct.quic_terminate_cause_st, ptr %5, i32 0, i32 4
  %13 = load i8, ptr %12, align 8
  %14 = and i8 %13, -3
  %15 = or i8 %14, 2
  store i8 %15, ptr %12, align 8
  %16 = load ptr, ptr %4, align 8, !tbaa !240
  %17 = load i8, ptr %16, align 8
  %18 = and i8 %17, 1
  %19 = zext i8 %18 to i32
  %20 = getelementptr inbounds nuw %struct.quic_terminate_cause_st, ptr %5, i32 0, i32 4
  %21 = trunc i32 %19 to i8
  %22 = load i8, ptr %20, align 8
  %23 = and i8 %21, 1
  %24 = and i8 %22, -2
  %25 = or i8 %24, %23
  store i8 %25, ptr %20, align 8
  %26 = load ptr, ptr %4, align 8, !tbaa !240
  %27 = getelementptr inbounds nuw %struct.ossl_quic_frame_conn_close_st, ptr %26, i32 0, i32 1
  %28 = load i64, ptr %27, align 8, !tbaa !233
  %29 = getelementptr inbounds nuw %struct.quic_terminate_cause_st, ptr %5, i32 0, i32 0
  store i64 %28, ptr %29, align 8, !tbaa !228
  %30 = load ptr, ptr %4, align 8, !tbaa !240
  %31 = getelementptr inbounds nuw %struct.ossl_quic_frame_conn_close_st, ptr %30, i32 0, i32 2
  %32 = load i64, ptr %31, align 8, !tbaa !235
  %33 = getelementptr inbounds nuw %struct.quic_terminate_cause_st, ptr %5, i32 0, i32 1
  store i64 %32, ptr %33, align 8, !tbaa !239
  %34 = load ptr, ptr %4, align 8, !tbaa !240
  %35 = getelementptr inbounds nuw %struct.ossl_quic_frame_conn_close_st, ptr %34, i32 0, i32 3
  %36 = load ptr, ptr %35, align 8, !tbaa !236
  %37 = getelementptr inbounds nuw %struct.quic_terminate_cause_st, ptr %5, i32 0, i32 2
  store ptr %36, ptr %37, align 8, !tbaa !229
  %38 = load ptr, ptr %4, align 8, !tbaa !240
  %39 = getelementptr inbounds nuw %struct.ossl_quic_frame_conn_close_st, ptr %38, i32 0, i32 4
  %40 = load i64, ptr %39, align 8, !tbaa !238
  %41 = getelementptr inbounds nuw %struct.quic_terminate_cause_st, ptr %5, i32 0, i32 3
  store i64 %40, ptr %41, align 8, !tbaa !230
  %42 = load ptr, ptr %3, align 8, !tbaa !3
  call void @ch_start_terminating(ptr noundef %42, ptr noundef %5, i32 noundef 0)
  store i32 0, ptr %6, align 4
  br label %43

43:                                               ; preds = %11, %10
  call void @llvm.lifetime.end.p0(i64 40, ptr %5) #9
  %44 = load i32, ptr %6, align 4
  switch i32 %44, label %46 [
    i32 0, label %45
    i32 1, label %45
  ]

45:                                               ; preds = %43, %43
  ret void

46:                                               ; preds = %43
  unreachable
}