; Function Attrs: nounwind uwtable
define void @ossl_quic_channel_on_remote_conn_close(ptr noundef %0, ptr noundef readonly captures(none) %1) local_unnamed_addr #0 {
  %3 = alloca %struct.quic_terminate_cause_st, align 8
  call void @llvm.lifetime.start.p0(i64 40, ptr nonnull %3) #15
  %4 = getelementptr inbounds nuw i8, ptr %3, i64 32
  store i64 0, ptr %4, align 8
  %.not.i = icmp eq ptr %0, null
  br i1 %.not.i, label %ossl_quic_channel_is_active.exit.thread, label %ossl_quic_channel_is_active.exit

ossl_quic_channel_is_active.exit:                 ; preds = %2
  %5 = getelementptr inbounds nuw i8, ptr %0, i64 1568
  %6 = load i64, ptr %5, align 8
  %7 = and i64 %6, 7
  %.not = icmp eq i64 %7, 1
  br i1 %.not, label %8, label %ossl_quic_channel_is_active.exit.thread

8:                                                ; preds = %ossl_quic_channel_is_active.exit
  %9 = getelementptr inbounds nuw i8, ptr %3, i64 32
  %10 = load i8, ptr %1, align 8
  %11 = and i8 %10, 1
  %12 = or disjoint i8 %11, 2
  store i8 %12, ptr %9, align 8
  %13 = getelementptr inbounds nuw i8, ptr %1, i64 8
  %14 = load i64, ptr %13, align 8, !tbaa !231
  store i64 %14, ptr %3, align 8, !tbaa !208
  %15 = getelementptr inbounds nuw i8, ptr %1, i64 16
  %16 = load i64, ptr %15, align 8, !tbaa !233
  %17 = getelementptr inbounds nuw i8, ptr %3, i64 8
  store i64 %16, ptr %17, align 8, !tbaa !230
  %18 = getelementptr inbounds nuw i8, ptr %1, i64 24
  %19 = load ptr, ptr %18, align 8, !tbaa !234
  %20 = getelementptr inbounds nuw i8, ptr %3, i64 16
  store ptr %19, ptr %20, align 8, !tbaa !209
  %21 = getelementptr inbounds nuw i8, ptr %1, i64 32
  %22 = load i64, ptr %21, align 8, !tbaa !236
  %23 = getelementptr inbounds nuw i8, ptr %3, i64 24
  store i64 %22, ptr %23, align 8, !tbaa !210
  call fastcc void @ch_start_terminating(ptr noundef nonnull %0, ptr noundef %3, i32 noundef 0)
  br label %ossl_quic_channel_is_active.exit.thread

ossl_quic_channel_is_active.exit.thread:          ; preds = %2, %ossl_quic_channel_is_active.exit, %8
  call void @llvm.lifetime.end.p0(i64 40, ptr nonnull %3) #15
  ret void
}